; Function Attrs: nounwind sspstrong uwtable
define dso_local void @msix_set_mask(ptr noundef %dev, i32 noundef %vector, i1 noundef zeroext %mask) local_unnamed_addr #0 {
entry:
  %msix_entries_nr = getelementptr inbounds nuw i8, ptr %dev, i64 1268
  %0 = load i32, ptr %msix_entries_nr, align 4
  %cmp = icmp slt i32 %vector, %0
  br i1 %cmp, label %if.end, label %if.else

if.else:                                          ; preds = %entry
  tail call void @__assert_fail(ptr noundef nonnull @.str, ptr noundef nonnull @.str.1, i32 noundef 153, ptr noundef nonnull @__PRETTY_FUNCTION__.msix_set_mask) #15
  unreachable

if.end:                                           ; preds = %entry
  %mul = shl i32 %vector, 4
  %add = or disjoint i32 %mul, 12
  %msix_function_masked.i = getelementptr inbounds nuw i8, ptr %dev, i64 2152
  %1 = load i8, ptr %msix_function_masked.i, align 8
  %tobool.i = trunc i8 %1 to i1
  %msix_table.i.i = getelementptr inbounds nuw i8, ptr %dev, i64 1272
  %2 = load i8, ptr @xen_allowed, align 1
  %tobool.i.i = trunc i8 %2 to i1
  br i1 %tobool.i.i, label %land.lhs.true.i.i, label %if.end.i.i

land.lhs.true.i.i:                                ; preds = %if.end
  %3 = load ptr, ptr %msix_table.i.i, align 8
  %add.i.i = or disjoint i32 %mul, 8
  %idxprom.i.i = zext i32 %add.i.i to i64
  %arrayidx.i.i = getelementptr i8, ptr %3, i64 %idxprom.i.i
  %arrayidx.val.i.i = load i32, ptr %arrayidx.i.i, align 1
  %call1.i.i = tail call i32 @xen_is_pirq_msi(i32 noundef %arrayidx.val.i.i) #14
  %tobool2.not.i.i = icmp ne i32 %call1.i.i, 0
  %brmerge.i.i = or i1 %tobool2.not.i.i, %tobool.i
  %not.tobool2.not.i.i = xor i1 %tobool2.not.i.i, true
  br i1 %brmerge.i.i, label %msix_is_masked.exit, label %lor.rhs.i.i

if.end.i.i:                                       ; preds = %if.end
  br i1 %tobool.i, label %msix_is_masked.exit, label %lor.rhs.i.i

lor.rhs.i.i:                                      ; preds = %if.end.i.i, %land.lhs.true.i.i
  %4 = load ptr, ptr %msix_table.i.i, align 8
  %idxprom6.i.i = zext i32 %add to i64
  %arrayidx7.i.i = getelementptr i8, ptr %4, i64 %idxprom6.i.i
  %5 = load i8, ptr %arrayidx7.i.i, align 1
  %6 = and i8 %5, 1
  %tobool8.i.i = icmp ne i8 %6, 0
  br label %msix_is_masked.exit

msix_is_masked.exit:                              ; preds = %land.lhs.true.i.i, %if.end.i.i, %lor.rhs.i.i
  %retval.0.i.i = phi i1 [ %not.tobool2.not.i.i, %land.lhs.true.i.i ], [ true, %if.end.i.i ], [ %tobool8.i.i, %lor.rhs.i.i ]
  %7 = load ptr, ptr %msix_table.i.i, align 8
  %idxprom = zext i32 %add to i64
  %arrayidx = getelementptr i8, ptr %7, i64 %idxprom
  %8 = load i8, ptr %arrayidx, align 1
  %9 = and i8 %8, -2
  %masksel = zext i1 %mask to i8
  %.sink = or disjoint i8 %9, %masksel
  store i8 %.sink, ptr %arrayidx, align 1
  tail call fastcc void @msix_handle_mask_update(ptr noundef nonnull %dev, i32 noundef %vector, i1 noundef zeroext %retval.0.i.i)
  ret void
}